; Function Attrs: mustprogress uwtable
define void @_ZN9grpc_core23RegisterSecurityFiltersEPNS_17CoreConfiguration7BuilderE(ptr noundef %builder) local_unnamed_addr #3 {
entry:
  %ref.tmp = alloca [2 x ptr], align 8
  %channel_init_.i = getelementptr inbounds i8, ptr %builder, i64 32
  %call1 = tail call noundef nonnull align 8 dereferenceable(104) ptr @_ZN9grpc_core11ChannelInit7Builder14RegisterFilterE23grpc_channel_stack_typePK19grpc_channel_filterNS_14SourceLocationE(ptr noundef nonnull align 16 dereferenceable(528) %channel_init_.i, i32 noundef 1, ptr noundef nonnull @_ZN9grpc_core16ClientAuthFilter7kFilterE, ptr nonnull @.str, i32 69)
  %call2 = tail call noundef nonnull align 8 dereferenceable(104) ptr @_ZN9grpc_core11ChannelInit18FilterRegistration15IfHasChannelArgEPKc(ptr noundef nonnull align 8 dereferenceable(104) %call1, ptr noundef nonnull @.str.2)
  %call5 = tail call noundef nonnull align 8 dereferenceable(104) ptr @_ZN9grpc_core11ChannelInit7Builder14RegisterFilterE23grpc_channel_stack_typePK19grpc_channel_filterNS_14SourceLocationE(ptr noundef nonnull align 16 dereferenceable(528) %channel_init_.i, i32 noundef 4, ptr noundef nonnull @_ZN9grpc_core16ClientAuthFilter7kFilterE, ptr nonnull @.str, i32 72)
  %call6 = tail call noundef nonnull align 8 dereferenceable(104) ptr @_ZN9grpc_core11ChannelInit18FilterRegistration15IfHasChannelArgEPKc(ptr noundef nonnull align 8 dereferenceable(104) %call5, ptr noundef nonnull @.str.2)
  %call.i = tail call noundef zeroext i1 @_ZN9grpc_core19IsExperimentEnabledEm(i64 noundef 35)
  br i1 %call.i, label %if.then, label %if.else

if.then:                                          ; preds = %entry
  %call10 = tail call noundef nonnull align 8 dereferenceable(104) ptr @_ZN9grpc_core11ChannelInit7Builder14RegisterFilterE23grpc_channel_stack_typePK19grpc_channel_filterNS_14SourceLocationE(ptr noundef nonnull align 16 dereferenceable(528) %channel_init_.i, i32 noundef 5, ptr noundef nonnull @_ZN9grpc_core16ServerAuthFilter7kFilterE, ptr nonnull @.str, i32 76)
  br label %if.end

if.else:                                          ; preds = %entry
  %call14 = tail call noundef nonnull align 8 dereferenceable(104) ptr @_ZN9grpc_core11ChannelInit7Builder14RegisterFilterE23grpc_channel_stack_typePK19grpc_channel_filterNS_14SourceLocationE(ptr noundef nonnull align 16 dereferenceable(528) %channel_init_.i, i32 noundef 5, ptr noundef nonnull @_ZN9grpc_core22LegacyServerAuthFilter7kFilterE, ptr nonnull @.str, i32 80)
  br label %if.end

if.end:                                           ; preds = %if.else, %if.then
  %call14.sink = phi ptr [ %call14, %if.else ], [ %call10, %if.then ]
  %call15 = tail call noundef nonnull align 8 dereferenceable(104) ptr @_ZN9grpc_core11ChannelInit18FilterRegistration15IfHasChannelArgEPKc(ptr noundef nonnull align 8 dereferenceable(104) %call14.sink, ptr noundef nonnull @.str.3)
  %call18 = tail call noundef nonnull align 8 dereferenceable(104) ptr @_ZN9grpc_core11ChannelInit7Builder14RegisterFilterE23grpc_channel_stack_typePK19grpc_channel_filterNS_14SourceLocationE(ptr noundef nonnull align 16 dereferenceable(528) %channel_init_.i, i32 noundef 5, ptr noundef nonnull @_ZN9grpc_core21GrpcServerAuthzFilter13kFilterVtableE, ptr nonnull @.str, i32 84)
  %call19 = tail call noundef nonnull align 8 dereferenceable(104) ptr @_ZN9grpc_core11ChannelInit18FilterRegistration15IfHasChannelArgEPKc(ptr noundef nonnull align 8 dereferenceable(104) %call18, ptr noundef nonnull @.str.4)
  store ptr @_ZN9grpc_core16ServerAuthFilter7kFilterE, ptr %ref.tmp, align 8
  %arrayinit.element = getelementptr inbounds i8, ptr %ref.tmp, i64 8
  store ptr @_ZN9grpc_core22LegacyServerAuthFilter7kFilterE, ptr %arrayinit.element, align 8
  %call21 = call noundef nonnull align 8 dereferenceable(104) ptr @_ZN9grpc_core11ChannelInit18FilterRegistration5AfterESt16initializer_listIPK19grpc_channel_filterE(ptr noundef nonnull align 8 dereferenceable(104) %call19, ptr nonnull %ref.tmp, i64 2)
  ret void
}